target datalayout = "e-m:e-p270:32:32-p271:32:32-p272:64:64-i64:64-i128:128-f80:128-n8:16:32:64-S128"
target triple = "x86_64-pc-linux-gnu"

%"class.google::protobuf::io::Tokenizer" = type { %"struct.google::protobuf::io::Tokenizer::Token", %"struct.google::protobuf::io::Tokenizer::Token", ptr, ptr, i8, ptr, i32, i32, i8, i32, i32, ptr, i32, i8, i32, i8, i8, i8, i8 }
%"struct.google::protobuf::io::Tokenizer::Token" = type <{ i32, [4 x i8], %"class.std::__cxx11::basic_string", i32, i32, i32, [4 x i8] }>
%"class.std::__cxx11::basic_string" = type { %"struct.std::__cxx11::basic_string<char>::_Alloc_hider", i64, %union.anon }
%"struct.std::__cxx11::basic_string<char>::_Alloc_hider" = type { ptr }
%union.anon = type { i64, [8 x i8] }

@.str.15 = private unnamed_addr constant [2 x i8] c"/\00", align 1

; Function Attrs: mustprogress nounwind uwtable
define linkonce_odr hidden noundef i64 @_ZNSt11char_traitsIcE6lengthEPKc(ptr noundef %0) #4 comdat align 2 {
  %2 = alloca ptr, align 8
  store ptr %0, ptr %2, align 8, !tbaa !56
  %3 = load ptr, ptr %2, align 8, !tbaa !56
  %4 = call i64 @strlen(ptr noundef %3) #3
  ret i64 %4
}

; Function Attrs: mustprogress nounwind uwtable
define available_externally noundef i64 @_ZNKSt7__cxx1112basic_stringIcSt11char_traitsIcESaIcEE4sizeEv(ptr noundef nonnull align 8 dereferenceable(32) %0) #4 align 2 {
  %2 = alloca ptr, align 8
  store ptr %0, ptr %2, align 8, !tbaa !55
  %3 = load ptr, ptr %2, align 8
  %4 = getelementptr inbounds nuw %"class.std::__cxx11::basic_string", ptr %3, i32 0, i32 1
  %5 = load i64, ptr %4, align 8, !tbaa !72
  ret i64 %5
}

; Function Attrs: mustprogress uwtable
define available_externally noundef nonnull align 8 dereferenceable(32) ptr @_ZNSt7__cxx1112basic_stringIcSt11char_traitsIcESaIcEE6assignEPKc(ptr noundef nonnull align 8 dereferenceable(32) %0, ptr noundef %1) #6 align 2 {
  %3 = alloca ptr, align 8
  %4 = alloca ptr, align 8
  store ptr %0, ptr %3, align 8, !tbaa !55
  store ptr %1, ptr %4, align 8, !tbaa !56
  %5 = load ptr, ptr %3, align 8
  %6 = call noundef i64 @_ZNKSt7__cxx1112basic_stringIcSt11char_traitsIcESaIcEE4sizeEv(ptr noundef nonnull align 8 dereferenceable(32) %5) #3
  %7 = load ptr, ptr %4, align 8, !tbaa !56
  %8 = load ptr, ptr %4, align 8, !tbaa !56
  %9 = call noundef i64 @_ZNSt11char_traitsIcE6lengthEPKc(ptr noundef %8)
  %10 = call noundef nonnull align 8 dereferenceable(32) ptr @_ZNSt7__cxx1112basic_stringIcSt11char_traitsIcESaIcEE10_M_replaceEmmPKcm(ptr noundef nonnull align 8 dereferenceable(32) %5, i64 noundef 0, i64 noundef %6, ptr noundef %7, i64 noundef %9)
  ret ptr %10
}

; Function Attrs: mustprogress uwtable
define available_externally noundef nonnull align 8 dereferenceable(32) ptr @_ZNSt7__cxx1112basic_stringIcSt11char_traitsIcESaIcEEaSEPKc(ptr noundef nonnull align 8 dereferenceable(32) %0, ptr noundef %1) #6 align 2 {
  %3 = alloca ptr, align 8
  %4 = alloca ptr, align 8
  store ptr %0, ptr %3, align 8, !tbaa !55
  store ptr %1, ptr %4, align 8, !tbaa !56
  %5 = load ptr, ptr %3, align 8
  %6 = load ptr, ptr %4, align 8, !tbaa !56
  %7 = call noundef nonnull align 8 dereferenceable(32) ptr @_ZNSt7__cxx1112basic_stringIcSt11char_traitsIcESaIcEE6assignEPKc(ptr noundef nonnull align 8 dereferenceable(32) %5, ptr noundef %6)
  ret ptr %7
}

; Function Attrs: inlinehint mustprogress uwtable
define linkonce_odr hidden noundef zeroext i1 @_ZN6google8protobuf2io9Tokenizer10TryConsumeEc(ptr noundef nonnull align 8 dereferenceable(192) %0, i8 noundef signext %1) #10 comdat align 2 {
  %3 = alloca i1, align 1
  %4 = alloca ptr, align 8
  %5 = alloca i8, align 1
  store ptr %0, ptr %4, align 8, !tbaa !8
  store i8 %1, ptr %5, align 1, !tbaa !53
  %6 = load ptr, ptr %4, align 8
  %7 = getelementptr inbounds nuw %"class.google::protobuf::io::Tokenizer", ptr %6, i32 0, i32 4
  %8 = load i8, ptr %7, align 8, !tbaa !47
  %9 = sext i8 %8 to i32
  %10 = load i8, ptr %5, align 1, !tbaa !53
  %11 = sext i8 %10 to i32
  %12 = icmp eq i32 %9, %11
  br i1 %12, label %13, label %14

13:                                               ; preds = %2
  call void @_ZN6google8protobuf2io9Tokenizer8NextCharEv(ptr noundef nonnull align 8 dereferenceable(192) %6)
  store i1 true, ptr %3, align 1
  br label %15

14:                                               ; preds = %2
  store i1 false, ptr %3, align 1
  br label %15

15:                                               ; preds = %14, %13
  %16 = load i1, ptr %3, align 1
  ret i1 %16
}

; Function Attrs: mustprogress uwtable
define hidden noundef i32 @_ZN6google8protobuf2io9Tokenizer22TryConsumeCommentStartEv(ptr noundef nonnull align 8 dereferenceable(192) %0) #6 align 2 {
  %2 = alloca i32, align 4
  %3 = alloca ptr, align 8
  store ptr %0, ptr %3, align 8, !tbaa !8
  %4 = load ptr, ptr %3, align 8
  %5 = getelementptr inbounds nuw %"class.google::protobuf::io::Tokenizer", ptr %4, i32 0, i32 14
  %6 = load i32, ptr %5, align 8, !tbaa !34
  %7 = icmp eq i32 %6, 0
  br i1 %7, label %8, label %35

8:                                                ; preds = %1
  %9 = call noundef zeroext i1 @_ZN6google8protobuf2io9Tokenizer10TryConsumeEc(ptr noundef nonnull align 8 dereferenceable(192) %4, i8 noundef signext 47)
  br i1 %9, label %10, label %35

10:                                               ; preds = %8
  %11 = call noundef zeroext i1 @_ZN6google8protobuf2io9Tokenizer10TryConsumeEc(ptr noundef nonnull align 8 dereferenceable(192) %4, i8 noundef signext 47)
  br i1 %11, label %12, label %13

12:                                               ; preds = %10
  store i32 0, ptr %2, align 4
  br label %43

13:                                               ; preds = %10
  %14 = call noundef zeroext i1 @_ZN6google8protobuf2io9Tokenizer10TryConsumeEc(ptr noundef nonnull align 8 dereferenceable(192) %4, i8 noundef signext 42)
  br i1 %14, label %15, label %16

15:                                               ; preds = %13
  store i32 1, ptr %2, align 4
  br label %43

16:                                               ; preds = %13
  %17 = getelementptr inbounds nuw %"class.google::protobuf::io::Tokenizer", ptr %4, i32 0, i32 0
  %18 = getelementptr inbounds nuw %"struct.google::protobuf::io::Tokenizer::Token", ptr %17, i32 0, i32 0
  store i32 6, ptr %18, align 8, !tbaa !42
  %19 = getelementptr inbounds nuw %"class.google::protobuf::io::Tokenizer", ptr %4, i32 0, i32 0
  %20 = getelementptr inbounds nuw %"struct.google::protobuf::io::Tokenizer::Token", ptr %19, i32 0, i32 2
  %21 = call noundef nonnull align 8 dereferenceable(32) ptr @_ZNSt7__cxx1112basic_stringIcSt11char_traitsIcESaIcEEaSEPKc(ptr noundef nonnull align 8 dereferenceable(32) %20, ptr noundef @.str.15)
  %22 = getelementptr inbounds nuw %"class.google::protobuf::io::Tokenizer", ptr %4, i32 0, i32 9
  %23 = load i32, ptr %22, align 4, !tbaa !29
  %24 = getelementptr inbounds nuw %"class.google::protobuf::io::Tokenizer", ptr %4, i32 0, i32 0
  %25 = getelementptr inbounds nuw %"struct.google::protobuf::io::Tokenizer::Token", ptr %24, i32 0, i32 3
  store i32 %23, ptr %25, align 8, !tbaa !39
  %26 = getelementptr inbounds nuw %"class.google::protobuf::io::Tokenizer", ptr %4, i32 0, i32 10
  %27 = load i32, ptr %26, align 8, !tbaa !30
  %28 = sub nsw i32 %27, 1
  %29 = getelementptr inbounds nuw %"class.google::protobuf::io::Tokenizer", ptr %4, i32 0, i32 0
  %30 = getelementptr inbounds nuw %"struct.google::protobuf::io::Tokenizer::Token", ptr %29, i32 0, i32 4
  store i32 %28, ptr %30, align 4, !tbaa !40
  %31 = getelementptr inbounds nuw %"class.google::protobuf::io::Tokenizer", ptr %4, i32 0, i32 10
  %32 = load i32, ptr %31, align 8, !tbaa !30
  %33 = getelementptr inbounds nuw %"class.google::protobuf::io::Tokenizer", ptr %4, i32 0, i32 0
  %34 = getelementptr inbounds nuw %"struct.google::protobuf::io::Tokenizer::Token", ptr %33, i32 0, i32 5
  store i32 %32, ptr %34, align 8, !tbaa !41
  store i32 2, ptr %2, align 4
  br label %43

35:                                               ; preds = %8, %1
  %36 = getelementptr inbounds nuw %"class.google::protobuf::io::Tokenizer", ptr %4, i32 0, i32 14
  %37 = load i32, ptr %36, align 8, !tbaa !34
  %38 = icmp eq i32 %37, 1
  br i1 %38, label %39, label %42

39:                                               ; preds = %35
  %40 = call noundef zeroext i1 @_ZN6google8protobuf2io9Tokenizer10TryConsumeEc(ptr noundef nonnull align 8 dereferenceable(192) %4, i8 noundef signext 35)
  br i1 %40, label %41, label %42

41:                                               ; preds = %39
  store i32 0, ptr %2, align 4
  br label %43

42:                                               ; preds = %39, %35
  store i32 3, ptr %2, align 4
  br label %43

43:                                               ; preds = %42, %41, %16, %15, %12
  %44 = load i32, ptr %2, align 4
  ret i32 %44
}