; Function Attrs: mustprogress uwtable
define hidden noundef range(i32 0, 4) i32 @_ZN6google8protobuf2io9Tokenizer22TryConsumeCommentStartEv(ptr noundef nonnull align 8 dereferenceable(192) %0) local_unnamed_addr #6 align 2 {
  %2 = getelementptr inbounds nuw i8, ptr %0, i64 184
  %3 = load i32, ptr %2, align 8, !tbaa !29
  %4 = icmp eq i32 %3, 0
  %5 = getelementptr inbounds nuw i8, ptr %0, i64 128
  %6 = load i8, ptr %5, align 8
  br i1 %4, label %7, label %_ZN6google8protobuf2io9Tokenizer10TryConsumeEc.exit

7:                                                ; preds = %1
  %8 = icmp eq i8 %6, 47
  br i1 %8, label %9, label %_ZN6google8protobuf2io9Tokenizer10TryConsumeEc.exit3

9:                                                ; preds = %7
  tail call void @_ZN6google8protobuf2io9Tokenizer8NextCharEv(ptr noundef nonnull align 8 dereferenceable(192) %0)
  %10 = load i8, ptr %5, align 8, !tbaa !47
  switch i8 %10, label %_ZN6google8protobuf2io9Tokenizer10TryConsumeEc.exit2 [
    i8 47, label %_ZN6google8protobuf2io9Tokenizer10TryConsumeEc.exit1.thread
    i8 42, label %_ZN6google8protobuf2io9Tokenizer10TryConsumeEc.exit2.thread
  ]

_ZN6google8protobuf2io9Tokenizer10TryConsumeEc.exit1.thread: ; preds = %9
  tail call void @_ZN6google8protobuf2io9Tokenizer8NextCharEv(ptr noundef nonnull align 8 dereferenceable(192) %0)
  br label %_ZN6google8protobuf2io9Tokenizer10TryConsumeEc.exit3

_ZN6google8protobuf2io9Tokenizer10TryConsumeEc.exit2.thread: ; preds = %9
  tail call void @_ZN6google8protobuf2io9Tokenizer8NextCharEv(ptr noundef nonnull align 8 dereferenceable(192) %0)
  br label %_ZN6google8protobuf2io9Tokenizer10TryConsumeEc.exit3

_ZN6google8protobuf2io9Tokenizer10TryConsumeEc.exit2: ; preds = %9
  store i32 6, ptr %0, align 8, !tbaa !37
  %11 = getelementptr inbounds nuw i8, ptr %0, i64 8
  %12 = getelementptr inbounds nuw i8, ptr %0, i64 16
  %13 = load i64, ptr %12, align 8, !tbaa !9
  %14 = tail call noundef nonnull align 8 dereferenceable(32) ptr @_ZNSt7__cxx1112basic_stringIcSt11char_traitsIcESaIcEE10_M_replaceEmmPKcm(ptr noundef nonnull align 8 dereferenceable(32) %11, i64 noundef 0, i64 noundef %13, ptr noundef nonnull @.str.15, i64 noundef 1)
  %15 = getelementptr inbounds nuw i8, ptr %0, i64 156
  %16 = load i32, ptr %15, align 4, !tbaa !24
  %17 = getelementptr inbounds nuw i8, ptr %0, i64 40
  store i32 %16, ptr %17, align 8, !tbaa !34
  %18 = getelementptr inbounds nuw i8, ptr %0, i64 160
  %19 = load i32, ptr %18, align 8, !tbaa !25
  %20 = add nsw i32 %19, -1
  %21 = getelementptr inbounds nuw i8, ptr %0, i64 44
  store i32 %20, ptr %21, align 4, !tbaa !35
  %22 = getelementptr inbounds nuw i8, ptr %0, i64 48
  store i32 %19, ptr %22, align 8, !tbaa !36
  br label %_ZN6google8protobuf2io9Tokenizer10TryConsumeEc.exit3

_ZN6google8protobuf2io9Tokenizer10TryConsumeEc.exit: ; preds = %1
  %23 = icmp eq i32 %3, 1
  %24 = icmp eq i8 %6, 35
  %or.cond = select i1 %23, i1 %24, i1 false
  br i1 %or.cond, label %_ZN6google8protobuf2io9Tokenizer10TryConsumeEc.exit3.thread, label %_ZN6google8protobuf2io9Tokenizer10TryConsumeEc.exit3

_ZN6google8protobuf2io9Tokenizer10TryConsumeEc.exit3.thread: ; preds = %_ZN6google8protobuf2io9Tokenizer10TryConsumeEc.exit
  tail call void @_ZN6google8protobuf2io9Tokenizer8NextCharEv(ptr noundef nonnull align 8 dereferenceable(192) %0)
  br label %_ZN6google8protobuf2io9Tokenizer10TryConsumeEc.exit3

_ZN6google8protobuf2io9Tokenizer10TryConsumeEc.exit3: ; preds = %7, %_ZN6google8protobuf2io9Tokenizer10TryConsumeEc.exit, %_ZN6google8protobuf2io9Tokenizer10TryConsumeEc.exit3.thread, %_ZN6google8protobuf2io9Tokenizer10TryConsumeEc.exit2.thread, %_ZN6google8protobuf2io9Tokenizer10TryConsumeEc.exit1.thread, %_ZN6google8protobuf2io9Tokenizer10TryConsumeEc.exit2
  %.0 = phi i32 [ 2, %_ZN6google8protobuf2io9Tokenizer10TryConsumeEc.exit2 ], [ 0, %_ZN6google8protobuf2io9Tokenizer10TryConsumeEc.exit1.thread ], [ 1, %_ZN6google8protobuf2io9Tokenizer10TryConsumeEc.exit2.thread ], [ 0, %_ZN6google8protobuf2io9Tokenizer10TryConsumeEc.exit3.thread ], [ 3, %_ZN6google8protobuf2io9Tokenizer10TryConsumeEc.exit ], [ 3, %7 ]
  ret i32 %.0
}